; Function Attrs: nounwind uwtable
define dso_local range(i64 0, 2) i64 @date_ne_timestamptz(ptr noundef readonly captures(none) %0) local_unnamed_addr #0 {
  %2 = alloca %struct.pg_tm, align 8
  %3 = getelementptr inbounds nuw i8, ptr %0, i64 32
  %4 = load i64, ptr %3, align 8
  %5 = trunc i64 %4 to i32
  %6 = getelementptr inbounds nuw i8, ptr %0, i64 48
  %7 = load i64, ptr %6, align 8
  call void @llvm.lifetime.start.p0(i64 56, ptr nonnull %2) #16
  switch i32 %5, label %9 [
    i32 -2147483648, label %30
    i32 2147483647, label %8
  ]

8:                                                ; preds = %1
  br label %30

9:                                                ; preds = %1
  %10 = icmp sgt i32 %5, 106751982
  br i1 %10, label %28, label %11

11:                                               ; preds = %9
  %12 = add nsw i32 %5, 2451545
  %13 = getelementptr inbounds nuw i8, ptr %2, i64 20
  %14 = getelementptr inbounds nuw i8, ptr %2, i64 16
  %15 = getelementptr inbounds nuw i8, ptr %2, i64 12
  call void @j2date(i32 noundef %12, ptr noundef nonnull %13, ptr noundef nonnull %14, ptr noundef nonnull %15) #16
  %16 = getelementptr inbounds nuw i8, ptr %2, i64 8
  store i32 0, ptr %16, align 8
  %17 = getelementptr inbounds nuw i8, ptr %2, i64 4
  store i32 0, ptr %17, align 4
  store i32 0, ptr %2, align 8
  %18 = load ptr, ptr @session_timezone, align 8
  %19 = call i32 @DetermineTimeZoneOffset(ptr noundef nonnull %2, ptr noundef %18) #16
  %sext = shl i64 %4, 32
  %20 = ashr exact i64 %sext, 32
  %21 = mul i64 %20, 86400000000
  %22 = sext i32 %19 to i64
  %23 = mul nsw i64 %22, 1000000
  %24 = add i64 %23, %21
  %25 = add i64 %24, 211813488000000000
  %or.cond.i.i = icmp ult i64 %25, -9011559254509551616
  br i1 %or.cond.i.i, label %30, label %26

26:                                               ; preds = %11
  %27 = icmp slt i64 %24, -211813488000000000
  br i1 %27, label %29, label %28

28:                                               ; preds = %26, %9
  call void @llvm.lifetime.end.p0(i64 56, ptr nonnull %2) #16
  br label %date_cmp_timestamptz_internal.exit

29:                                               ; preds = %26
  call void @llvm.lifetime.end.p0(i64 56, ptr nonnull %2) #16
  br label %date_cmp_timestamptz_internal.exit

30:                                               ; preds = %11, %8, %1
  %.0.i.ph.ph.i = phi i64 [ 9223372036854775807, %8 ], [ %24, %11 ], [ -9223372036854775808, %1 ]
  call void @llvm.lifetime.end.p0(i64 56, ptr nonnull %2) #16
  %31 = call i32 @timestamp_cmp_internal(i64 noundef %.0.i.ph.ph.i, i64 noundef %7) #16
  %32 = icmp ne i32 %31, 0
  %33 = zext i1 %32 to i64
  br label %date_cmp_timestamptz_internal.exit

date_cmp_timestamptz_internal.exit:               ; preds = %28, %29, %30
  %.0.i = phi i64 [ 1, %28 ], [ 1, %29 ], [ %33, %30 ]
  ret i64 %.0.i
}